target datalayout = "e-m:e-p270:32:32-p271:32:32-p272:64:64-i64:64-i128:128-f80:128-n8:16:32:64-S128"
target triple = "x86_64-pc-linux-gnu"

%struct.DdNode = type { i32, i32, ptr, %union.anon, i64 }
%union.anon = type { %struct.DdChildren }
%struct.DdChildren = type { ptr, ptr }
%struct.DdHashTable = type { i32, i32, ptr, ptr, ptr, i32, i32, i32, i32, ptr }
%struct.DdHashItem = type { ptr, i64, ptr, [1 x ptr] }

; Function Attrs: nounwind uwtable
define ptr @cuddHashTableLookup1(ptr noundef %0, ptr noundef %1) #0 {
  %3 = alloca ptr, align 8
  %4 = alloca ptr, align 8
  %5 = alloca ptr, align 8
  %6 = alloca i32, align 4
  %7 = alloca ptr, align 8
  %8 = alloca ptr, align 8
  %9 = alloca ptr, align 8
  %10 = alloca ptr, align 8
  %11 = alloca i32, align 4
  store ptr %0, ptr %4, align 8, !tbaa !62
  store ptr %1, ptr %5, align 8, !tbaa !50
  call void @llvm.lifetime.start.p0(i64 4, ptr %6) #10
  call void @llvm.lifetime.start.p0(i64 8, ptr %7) #10
  call void @llvm.lifetime.start.p0(i64 8, ptr %8) #10
  %12 = load ptr, ptr %5, align 8, !tbaa !50
  %13 = ptrtoint ptr %12 to i64
  %14 = and i64 %13, -2
  %15 = inttoptr i64 %14 to ptr
  %16 = getelementptr inbounds nuw %struct.DdNode, ptr %15, i32 0, i32 4
  %17 = load i64, ptr %16, align 8, !tbaa !88
  %18 = shl i64 %17, 1
  %19 = load ptr, ptr %5, align 8, !tbaa !50
  %20 = ptrtoint ptr %19 to i64
  %21 = and i64 %20, 1
  %22 = trunc i64 %21 to i32
  %23 = sext i32 %22 to i64
  %24 = or i64 %18, %23
  %25 = trunc i64 %24 to i32
  %26 = mul i32 %25, 12582917
  %27 = load ptr, ptr %5, align 8, !tbaa !50
  %28 = ptrtoint ptr %27 to i64
  %29 = and i64 %28, -2
  %30 = inttoptr i64 %29 to ptr
  %31 = getelementptr inbounds nuw %struct.DdNode, ptr %30, i32 0, i32 4
  %32 = load i64, ptr %31, align 8, !tbaa !88
  %33 = shl i64 %32, 1
  %34 = load ptr, ptr %5, align 8, !tbaa !50
  %35 = ptrtoint ptr %34 to i64
  %36 = and i64 %35, 1
  %37 = trunc i64 %36 to i32
  %38 = sext i32 %37 to i64
  %39 = or i64 %33, %38
  %40 = trunc i64 %39 to i32
  %41 = add i32 %26, %40
  %42 = mul i32 %41, 4256249
  %43 = load ptr, ptr %4, align 8, !tbaa !62
  %44 = getelementptr inbounds nuw %struct.DdHashTable, ptr %43, i32 0, i32 6
  %45 = load i32, ptr %44, align 4, !tbaa !73
  %46 = lshr i32 %42, %45
  store i32 %46, ptr %6, align 4, !tbaa !8
  %47 = load ptr, ptr %4, align 8, !tbaa !62
  %48 = getelementptr inbounds nuw %struct.DdHashTable, ptr %47, i32 0, i32 2
  %49 = load ptr, ptr %48, align 8, !tbaa !74
  %50 = load i32, ptr %6, align 4, !tbaa !8
  %51 = zext i32 %50 to i64
  %52 = getelementptr inbounds nuw ptr, ptr %49, i64 %51
  %53 = load ptr, ptr %52, align 8, !tbaa !77
  store ptr %53, ptr %7, align 8, !tbaa !77
  store ptr null, ptr %8, align 8, !tbaa !77
  br label %54

54:                                               ; preds = %126, %2
  %55 = load ptr, ptr %7, align 8, !tbaa !77
  %56 = icmp ne ptr %55, null
  br i1 %56, label %57, label %127

57:                                               ; preds = %54
  call void @llvm.lifetime.start.p0(i64 8, ptr %9) #10
  %58 = load ptr, ptr %7, align 8, !tbaa !77
  %59 = getelementptr inbounds nuw %struct.DdHashItem, ptr %58, i32 0, i32 3
  %60 = getelementptr inbounds [1 x ptr], ptr %59, i64 0, i64 0
  store ptr %60, ptr %9, align 8, !tbaa !49
  %61 = load ptr, ptr %5, align 8, !tbaa !50
  %62 = load ptr, ptr %9, align 8, !tbaa !49
  %63 = getelementptr inbounds ptr, ptr %62, i64 0
  %64 = load ptr, ptr %63, align 8, !tbaa !50
  %65 = icmp eq ptr %61, %64
  br i1 %65, label %66, label %119

66:                                               ; preds = %57
  call void @llvm.lifetime.start.p0(i64 8, ptr %10) #10
  %67 = load ptr, ptr %7, align 8, !tbaa !77
  %68 = getelementptr inbounds nuw %struct.DdHashItem, ptr %67, i32 0, i32 2
  %69 = load ptr, ptr %68, align 8, !tbaa !78
  store ptr %69, ptr %10, align 8, !tbaa !50
  %70 = load ptr, ptr %7, align 8, !tbaa !77
  %71 = getelementptr inbounds nuw %struct.DdHashItem, ptr %70, i32 0, i32 1
  %72 = load i64, ptr %71, align 8, !tbaa !86
  %73 = add nsw i64 %72, -1
  store i64 %73, ptr %71, align 8, !tbaa !86
  %74 = load ptr, ptr %7, align 8, !tbaa !77
  %75 = getelementptr inbounds nuw %struct.DdHashItem, ptr %74, i32 0, i32 1
  %76 = load i64, ptr %75, align 8, !tbaa !86
  %77 = icmp eq i64 %76, 0
  br i1 %77, label %78, label %117

78:                                               ; preds = %66
  %79 = load ptr, ptr %10, align 8, !tbaa !50
  %80 = ptrtoint ptr %79 to i64
  %81 = and i64 %80, -2
  %82 = inttoptr i64 %81 to ptr
  %83 = getelementptr inbounds nuw %struct.DdNode, ptr %82, i32 0, i32 1
  %84 = load i32, ptr %83, align 4, !tbaa !55
  %85 = add i32 %84, -1
  store i32 %85, ptr %83, align 4, !tbaa !55
  %86 = load ptr, ptr %8, align 8, !tbaa !77
  %87 = icmp eq ptr %86, null
  br i1 %87, label %88, label %98

88:                                               ; preds = %78
  %89 = load ptr, ptr %7, align 8, !tbaa !77
  %90 = getelementptr inbounds nuw %struct.DdHashItem, ptr %89, i32 0, i32 0
  %91 = load ptr, ptr %90, align 8, !tbaa !80
  %92 = load ptr, ptr %4, align 8, !tbaa !62
  %93 = getelementptr inbounds nuw %struct.DdHashTable, ptr %92, i32 0, i32 2
  %94 = load ptr, ptr %93, align 8, !tbaa !74
  %95 = load i32, ptr %6, align 4, !tbaa !8
  %96 = zext i32 %95 to i64
  %97 = getelementptr inbounds nuw ptr, ptr %94, i64 %96
  store ptr %91, ptr %97, align 8, !tbaa !77
  br label %104

98:                                               ; preds = %78
  %99 = load ptr, ptr %7, align 8, !tbaa !77
  %100 = getelementptr inbounds nuw %struct.DdHashItem, ptr %99, i32 0, i32 0
  %101 = load ptr, ptr %100, align 8, !tbaa !80
  %102 = load ptr, ptr %8, align 8, !tbaa !77
  %103 = getelementptr inbounds nuw %struct.DdHashItem, ptr %102, i32 0, i32 0
  store ptr %101, ptr %103, align 8, !tbaa !80
  br label %104

104:                                              ; preds = %98, %88
  %105 = load ptr, ptr %4, align 8, !tbaa !62
  %106 = getelementptr inbounds nuw %struct.DdHashTable, ptr %105, i32 0, i32 3
  %107 = load ptr, ptr %106, align 8, !tbaa !70
  %108 = load ptr, ptr %7, align 8, !tbaa !77
  %109 = getelementptr inbounds nuw %struct.DdHashItem, ptr %108, i32 0, i32 0
  store ptr %107, ptr %109, align 8, !tbaa !80
  %110 = load ptr, ptr %7, align 8, !tbaa !77
  %111 = load ptr, ptr %4, align 8, !tbaa !62
  %112 = getelementptr inbounds nuw %struct.DdHashTable, ptr %111, i32 0, i32 3
  store ptr %110, ptr %112, align 8, !tbaa !70
  %113 = load ptr, ptr %4, align 8, !tbaa !62
  %114 = getelementptr inbounds nuw %struct.DdHashTable, ptr %113, i32 0, i32 7
  %115 = load i32, ptr %114, align 8, !tbaa !75
  %116 = add i32 %115, -1
  store i32 %116, ptr %114, align 8, !tbaa !75
  br label %117

117:                                              ; preds = %104, %66
  %118 = load ptr, ptr %10, align 8, !tbaa !50
  store ptr %118, ptr %3, align 8
  store i32 1, ptr %11, align 4
  call void @llvm.lifetime.end.p0(i64 8, ptr %10) #10
  br label %124

119:                                              ; preds = %57
  %120 = load ptr, ptr %7, align 8, !tbaa !77
  store ptr %120, ptr %8, align 8, !tbaa !77
  %121 = load ptr, ptr %7, align 8, !tbaa !77
  %122 = getelementptr inbounds nuw %struct.DdHashItem, ptr %121, i32 0, i32 0
  %123 = load ptr, ptr %122, align 8, !tbaa !80
  store ptr %123, ptr %7, align 8, !tbaa !77
  store i32 0, ptr %11, align 4
  br label %124

124:                                              ; preds = %119, %117
  call void @llvm.lifetime.end.p0(i64 8, ptr %9) #10
  %125 = load i32, ptr %11, align 4
  switch i32 %125, label %128 [
    i32 0, label %126
  ]

126:                                              ; preds = %124
  br label %54, !llvm.loop !110

127:                                              ; preds = %54
  store ptr null, ptr %3, align 8
  store i32 1, ptr %11, align 4
  br label %128

128:                                              ; preds = %127, %124
  call void @llvm.lifetime.end.p0(i64 8, ptr %8) #10
  call void @llvm.lifetime.end.p0(i64 8, ptr %7) #10
  call void @llvm.lifetime.end.p0(i64 4, ptr %6) #10
  %129 = load ptr, ptr %3, align 8
  ret ptr %129
}