; Function Attrs: nofree norecurse nosync nounwind memory(readwrite, inaccessiblemem: none) uwtable
define ptr @cuddHashTableLookup1(ptr noundef captures(none) %0, ptr noundef %1) local_unnamed_addr #6 {
  %3 = ptrtoint ptr %1 to i64
  %4 = and i64 %3, -2
  %5 = inttoptr i64 %4 to ptr
  %6 = getelementptr inbounds nuw i8, ptr %5, i64 32
  %7 = load i64, ptr %6, align 8, !tbaa !79
  %8 = shl i64 %7, 1
  %9 = and i64 %3, 1
  %10 = or disjoint i64 %8, %9
  %11 = trunc i64 %10 to i32
  %12 = mul i32 %11, 2084940758
  %13 = getelementptr inbounds nuw i8, ptr %0, i64 36
  %14 = load i32, ptr %13, align 4, !tbaa !63
  %15 = lshr i32 %12, %14
  %16 = getelementptr inbounds nuw i8, ptr %0, i64 8
  %17 = load ptr, ptr %16, align 8, !tbaa !64
  %18 = zext i32 %15 to i64
  %19 = getelementptr inbounds nuw ptr, ptr %17, i64 %18
  br label %20

20:                                               ; preds = %21, %2
  %.033 = phi ptr [ null, %2 ], [ %.031, %21 ]
  %.031.in = phi ptr [ %19, %2 ], [ %.031, %21 ]
  %.031 = load ptr, ptr %.031.in, align 8, !tbaa !67
  %.not = icmp eq ptr %.031, null
  br i1 %.not, label %.thread, label %21

21:                                               ; preds = %20
  %22 = getelementptr inbounds nuw i8, ptr %.031, i64 24
  %23 = load ptr, ptr %22, align 8, !tbaa !45
  %.not35 = icmp eq ptr %1, %23
  br i1 %.not35, label %24, label %20

24:                                               ; preds = %21
  %25 = getelementptr inbounds nuw i8, ptr %.031, i64 16
  %26 = load ptr, ptr %25, align 8, !tbaa !68
  %27 = getelementptr inbounds nuw i8, ptr %.031, i64 8
  %28 = load i64, ptr %27, align 8, !tbaa !74
  %29 = add nsw i64 %28, -1
  store i64 %29, ptr %27, align 8, !tbaa !74
  %30 = icmp eq i64 %29, 0
  br i1 %30, label %31, label %.thread

31:                                               ; preds = %24
  %32 = ptrtoint ptr %26 to i64
  %33 = and i64 %32, -2
  %34 = inttoptr i64 %33 to ptr
  %35 = getelementptr inbounds nuw i8, ptr %34, i64 4
  %36 = load i32, ptr %35, align 4, !tbaa !49
  %37 = add i32 %36, -1
  store i32 %37, ptr %35, align 4, !tbaa !49
  %38 = icmp eq ptr %.033, null
  %39 = load ptr, ptr %.031, align 8, !tbaa !76
  br i1 %38, label %40, label %41

40:                                               ; preds = %31
  store ptr %39, ptr %19, align 8, !tbaa !67
  br label %42

41:                                               ; preds = %31
  store ptr %39, ptr %.033, align 8, !tbaa !76
  br label %42

42:                                               ; preds = %41, %40
  %43 = getelementptr inbounds nuw i8, ptr %0, i64 16
  %44 = load ptr, ptr %43, align 8, !tbaa !86
  store ptr %44, ptr %.031, align 8, !tbaa !76
  store ptr %.031, ptr %43, align 8, !tbaa !86
  %45 = getelementptr inbounds nuw i8, ptr %0, i64 40
  %46 = load i32, ptr %45, align 8, !tbaa !65
  %47 = add i32 %46, -1
  store i32 %47, ptr %45, align 8, !tbaa !65
  br label %.thread

.thread:                                          ; preds = %20, %42, %24
  %.2 = phi ptr [ %26, %24 ], [ %26, %42 ], [ null, %20 ]
  ret ptr %.2
}